target datalayout = "e-m:e-p270:32:32-p271:32:32-p272:64:64-i64:64-i128:128-f80:128-n8:16:32:64-S128"
target triple = "x86_64-unknown-linux-gnu"

%class.b3CpuRigidBodyPipeline = type { ptr, ptr }
%struct.b3CpuRigidBodyPipelineInternalData = type { %class.b3AlignedObjectArray, %class.b3AlignedObjectArray.0, %class.b3AlignedObjectArray.4, ptr, ptr, %struct.b3Config }
%class.b3AlignedObjectArray = type <{ %class.b3AlignedAllocator, [3 x i8], i32, i32, [4 x i8], ptr, i8, [7 x i8] }>
%class.b3AlignedAllocator = type { i8 }
%class.b3AlignedObjectArray.0 = type <{ %class.b3AlignedAllocator.1, [3 x i8], i32, i32, [4 x i8], ptr, i8, [7 x i8] }>
%class.b3AlignedAllocator.1 = type { i8 }
%class.b3AlignedObjectArray.4 = type <{ %class.b3AlignedAllocator.5, [3 x i8], i32, i32, [4 x i8], ptr, i8, [7 x i8] }>
%class.b3AlignedAllocator.5 = type { i8 }
%struct.b3Config = type { i32, i32, i32, i32, i32, i32, i32, i32, i32, i32, i32, i32 }
%class.b3Vector3 = type { %union.anon }
%union.anon = type { [4 x float] }
%class.b3Quaternion = type { %class.b3QuadWord }
%class.b3QuadWord = type { %union.anon.8 }
%union.anon.8 = type { [4 x float] }
%struct.b3Aabb = type { %union.anon.13, %union.anon.14 }
%union.anon.13 = type { [4 x float] }
%union.anon.14 = type { [4 x float] }
%struct.b3RigidBodyData = type { %class.b3Vector3, %class.b3Quaternion, %class.b3Vector3, %class.b3Vector3, i32, float, float, float }
%struct.b3Collidable = type { %union.anon.10, %union.anon.11, i32, %union.anon.12 }
%union.anon.10 = type { i32 }
%union.anon.11 = type { float }
%union.anon.12 = type { i32 }

; Function Attrs: mustprogress nounwind uwtable
define linkonce_odr dso_local noundef i32 @_ZNK20b3AlignedObjectArrayI15b3RigidBodyDataE4sizeEv(ptr noundef nonnull align 8 dereferenceable(25) %this) #4 comdat align 2 {
entry:
  %this.addr = alloca ptr, align 8
  store ptr %this, ptr %this.addr, align 8
  %this1 = load ptr, ptr %this.addr, align 8
  %m_size = getelementptr inbounds %class.b3AlignedObjectArray, ptr %this1, i32 0, i32 2
  %0 = load i32, ptr %m_size, align 4
  ret i32 %0
}

; Function Attrs: mustprogress nounwind uwtable
define linkonce_odr dso_local noundef nonnull align 16 dereferenceable(32) ptr @_ZN20b3AlignedObjectArrayI6b3AabbEixEi(ptr noundef nonnull align 8 dereferenceable(25) %this, i32 noundef %n) #4 comdat align 2 {
entry:
  %this.addr = alloca ptr, align 8
  %n.addr = alloca i32, align 4
  store ptr %this, ptr %this.addr, align 8
  store i32 %n, ptr %n.addr, align 4
  %this1 = load ptr, ptr %this.addr, align 8
  %m_data = getelementptr inbounds %class.b3AlignedObjectArray.4, ptr %this1, i32 0, i32 5
  %0 = load ptr, ptr %m_data, align 8
  %1 = load i32, ptr %n.addr, align 4
  %idxprom = sext i32 %1 to i64
  %arrayidx = getelementptr inbounds %struct.b3Aabb, ptr %0, i64 %idxprom
  ret ptr %arrayidx
}

; Function Attrs: mustprogress nounwind uwtable
define linkonce_odr dso_local noundef nonnull align 16 dereferenceable(80) ptr @_ZN20b3AlignedObjectArrayI15b3RigidBodyDataEixEi(ptr noundef nonnull align 8 dereferenceable(25) %this, i32 noundef %n) #4 comdat align 2 {
entry:
  %this.addr = alloca ptr, align 8
  %n.addr = alloca i32, align 4
  store ptr %this, ptr %this.addr, align 8
  store i32 %n, ptr %n.addr, align 4
  %this1 = load ptr, ptr %this.addr, align 8
  %m_data = getelementptr inbounds %class.b3AlignedObjectArray, ptr %this1, i32 0, i32 5
  %0 = load ptr, ptr %m_data, align 8
  %1 = load i32, ptr %n.addr, align 4
  %idxprom = sext i32 %1 to i64
  %arrayidx = getelementptr inbounds %struct.b3RigidBodyData, ptr %0, i64 %idxprom
  ret ptr %arrayidx
}

; Function Attrs: mustprogress uwtable
define dso_local noundef i32 @_ZNK22b3CpuRigidBodyPipeline12getNumBodiesEv(ptr noundef nonnull align 8 dereferenceable(16) %this) #0 align 2 {
entry:
  %this.addr = alloca ptr, align 8
  store ptr %this, ptr %this.addr, align 8
  %this1 = load ptr, ptr %this.addr, align 8
  %m_data = getelementptr inbounds %class.b3CpuRigidBodyPipeline, ptr %this1, i32 0, i32 1
  %0 = load ptr, ptr %m_data, align 8
  %m_rigidBodies = getelementptr inbounds %struct.b3CpuRigidBodyPipelineInternalData, ptr %0, i32 0, i32 0
  %call = call noundef i32 @_ZNK20b3AlignedObjectArrayI15b3RigidBodyDataE4sizeEv(ptr noundef nonnull align 8 dereferenceable(25) %m_rigidBodies)
  ret i32 %call
}

; Function Attrs: mustprogress uwtable
define dso_local void @_ZN22b3CpuRigidBodyPipeline20updateAabbWorldSpaceEv(ptr noundef nonnull align 8 dereferenceable(16) %this) unnamed_addr #0 align 2 {
entry:
  %this.addr = alloca ptr, align 8
  %i = alloca i32, align 4
  %body = alloca ptr, align 8
  %position = alloca %class.b3Vector3, align 16
  %orientation = alloca %class.b3Quaternion, align 16
  %collidableIndex = alloca i32, align 4
  %collidable = alloca ptr, align 8
  %shapeIndex = alloca i32, align 4
  %localAabb = alloca %struct.b3Aabb, align 16
  %worldAabb = alloca ptr, align 8
  %margin = alloca float, align 4
  store ptr %this, ptr %this.addr, align 8
  %this1 = load ptr, ptr %this.addr, align 8
  store i32 0, ptr %i, align 4
  br label %for.cond

for.cond:                                         ; preds = %for.inc, %entry
  %0 = load i32, ptr %i, align 4
  %call = call noundef i32 @_ZNK22b3CpuRigidBodyPipeline12getNumBodiesEv(ptr noundef nonnull align 8 dereferenceable(16) %this1)
  %cmp = icmp slt i32 %0, %call
  br i1 %cmp, label %for.body, label %for.end

for.body:                                         ; preds = %for.cond
  %m_data = getelementptr inbounds %class.b3CpuRigidBodyPipeline, ptr %this1, i32 0, i32 1
  %1 = load ptr, ptr %m_data, align 8
  %m_rigidBodies = getelementptr inbounds %struct.b3CpuRigidBodyPipelineInternalData, ptr %1, i32 0, i32 0
  %2 = load i32, ptr %i, align 4
  %call2 = call noundef nonnull align 16 dereferenceable(80) ptr @_ZN20b3AlignedObjectArrayI15b3RigidBodyDataEixEi(ptr noundef nonnull align 8 dereferenceable(25) %m_rigidBodies, i32 noundef %2)
  store ptr %call2, ptr %body, align 8
  %3 = load ptr, ptr %body, align 8
  %m_pos = getelementptr inbounds %struct.b3RigidBodyData, ptr %3, i32 0, i32 0
  call void @llvm.memcpy.p0.p0.i64(ptr align 16 %position, ptr align 16 %m_pos, i64 16, i1 false)
  %4 = load ptr, ptr %body, align 8
  %m_quat = getelementptr inbounds %struct.b3RigidBodyData, ptr %4, i32 0, i32 1
  call void @llvm.memcpy.p0.p0.i64(ptr align 16 %orientation, ptr align 16 %m_quat, i64 16, i1 false)
  %5 = load ptr, ptr %body, align 8
  %m_collidableIdx = getelementptr inbounds %struct.b3RigidBodyData, ptr %5, i32 0, i32 4
  %6 = load i32, ptr %m_collidableIdx, align 16
  store i32 %6, ptr %collidableIndex, align 4
  %m_data3 = getelementptr inbounds %class.b3CpuRigidBodyPipeline, ptr %this1, i32 0, i32 1
  %7 = load ptr, ptr %m_data3, align 8
  %m_np = getelementptr inbounds %struct.b3CpuRigidBodyPipelineInternalData, ptr %7, i32 0, i32 4
  %8 = load ptr, ptr %m_np, align 8
  %9 = load i32, ptr %collidableIndex, align 4
  %call4 = call noundef nonnull align 4 dereferenceable(16) ptr @_ZN16b3CpuNarrowPhase16getCollidableCpuEi(ptr noundef nonnull align 8 dereferenceable(28) %8, i32 noundef %9)
  store ptr %call4, ptr %collidable, align 8
  %10 = load ptr, ptr %collidable, align 8
  %11 = getelementptr inbounds %struct.b3Collidable, ptr %10, i32 0, i32 3
  %12 = load i32, ptr %11, align 4
  store i32 %12, ptr %shapeIndex, align 4
  %13 = load i32, ptr %shapeIndex, align 4
  %cmp5 = icmp sge i32 %13, 0
  br i1 %cmp5, label %if.then, label %if.end

if.then:                                          ; preds = %for.body
  %m_data6 = getelementptr inbounds %class.b3CpuRigidBodyPipeline, ptr %this1, i32 0, i32 1
  %14 = load ptr, ptr %m_data6, align 8
  %m_np7 = getelementptr inbounds %struct.b3CpuRigidBodyPipelineInternalData, ptr %14, i32 0, i32 4
  %15 = load ptr, ptr %m_np7, align 8
  %16 = load i32, ptr %shapeIndex, align 4
  %call8 = call noundef nonnull align 16 dereferenceable(32) ptr @_ZNK16b3CpuNarrowPhase17getLocalSpaceAabbEi(ptr noundef nonnull align 8 dereferenceable(28) %15, i32 noundef %16)
  call void @llvm.memcpy.p0.p0.i64(ptr align 16 %localAabb, ptr align 16 %call8, i64 32, i1 false)
  %m_data9 = getelementptr inbounds %class.b3CpuRigidBodyPipeline, ptr %this1, i32 0, i32 1
  %17 = load ptr, ptr %m_data9, align 8
  %m_aabbWorldSpace = getelementptr inbounds %struct.b3CpuRigidBodyPipelineInternalData, ptr %17, i32 0, i32 2
  %18 = load i32, ptr %i, align 4
  %call10 = call noundef nonnull align 16 dereferenceable(32) ptr @_ZN20b3AlignedObjectArrayI6b3AabbEixEi(ptr noundef nonnull align 8 dereferenceable(25) %m_aabbWorldSpace, i32 noundef %18)
  store ptr %call10, ptr %worldAabb, align 8
  store float 0.000000e+00, ptr %margin, align 4
  %19 = getelementptr inbounds %struct.b3Aabb, ptr %localAabb, i32 0, i32 0
  %20 = getelementptr inbounds %struct.b3Aabb, ptr %localAabb, i32 0, i32 1
  %21 = load float, ptr %margin, align 4
  %22 = load ptr, ptr %worldAabb, align 8
  %23 = getelementptr inbounds %struct.b3Aabb, ptr %22, i32 0, i32 0
  %24 = load ptr, ptr %worldAabb, align 8
  %25 = getelementptr inbounds %struct.b3Aabb, ptr %24, i32 0, i32 1
  call void @_Z16b3TransformAabb2RK9b3Vector3S1_fS1_RK12b3QuaternionPS_S5_(ptr noundef nonnull align 16 dereferenceable(16) %19, ptr noundef nonnull align 16 dereferenceable(16) %20, float noundef %21, ptr noundef nonnull align 16 dereferenceable(16) %position, ptr noundef nonnull align 16 dereferenceable(16) %orientation, ptr noundef %23, ptr noundef %25)
  %m_data11 = getelementptr inbounds %class.b3CpuRigidBodyPipeline, ptr %this1, i32 0, i32 1
  %26 = load ptr, ptr %m_data11, align 8
  %m_bp = getelementptr inbounds %struct.b3CpuRigidBodyPipelineInternalData, ptr %26, i32 0, i32 3
  %27 = load ptr, ptr %m_bp, align 8
  %28 = load i32, ptr %i, align 4
  %29 = load ptr, ptr %worldAabb, align 8
  %30 = getelementptr inbounds %struct.b3Aabb, ptr %29, i32 0, i32 0
  %31 = load ptr, ptr %worldAabb, align 8
  %32 = getelementptr inbounds %struct.b3Aabb, ptr %31, i32 0, i32 1
  %vtable = load ptr, ptr %27, align 8
  %vfn = getelementptr inbounds ptr, ptr %vtable, i64 3
  %33 = load ptr, ptr %vfn, align 8
  call void %33(ptr noundef nonnull align 8 dereferenceable(315) %27, i32 noundef %28, ptr noundef nonnull align 16 dereferenceable(16) %30, ptr noundef nonnull align 16 dereferenceable(16) %32, ptr noundef null)
  br label %if.end

if.end:                                           ; preds = %if.then, %for.body
  br label %for.inc

for.inc:                                          ; preds = %if.end
  %34 = load i32, ptr %i, align 4
  %inc = add nsw i32 %34, 1
  store i32 %inc, ptr %i, align 4
  br label %for.cond, !llvm.loop !5

for.end:                                          ; preds = %for.cond
  ret void
}