; Function Attrs: mustprogress uwtable
define dso_local void @_ZN22b3CpuRigidBodyPipeline20updateAabbWorldSpaceEv(ptr nocapture noundef nonnull readonly align 8 dereferenceable(16) %this) unnamed_addr #0 align 2 {
entry:
  %position = alloca %class.b3Vector3, align 16
  %orientation = alloca %class.b3Quaternion, align 16
  %localAabb = alloca %struct.b3Aabb, align 16
  %m_data.i = getelementptr inbounds i8, ptr %this, i64 8
  %0 = load ptr, ptr %m_data.i, align 8
  %m_size.i.i15 = getelementptr inbounds i8, ptr %0, i64 4
  %1 = load i32, ptr %m_size.i.i15, align 4
  %cmp16 = icmp sgt i32 %1, 0
  br i1 %cmp16, label %for.body.lr.ph, label %for.end

for.body.lr.ph:                                   ; preds = %entry
  %2 = getelementptr inbounds i8, ptr %localAabb, i64 16
  br label %for.body

for.body:                                         ; preds = %for.body.lr.ph, %for.inc
  %indvars.iv = phi i64 [ 0, %for.body.lr.ph ], [ %indvars.iv.next, %for.inc ]
  %3 = phi ptr [ %0, %for.body.lr.ph ], [ %18, %for.inc ]
  %m_data.i11 = getelementptr inbounds i8, ptr %3, i64 16
  %4 = load ptr, ptr %m_data.i11, align 8
  %arrayidx.i = getelementptr inbounds %struct.b3RigidBodyData, ptr %4, i64 %indvars.iv
  call void @llvm.memcpy.p0.p0.i64(ptr noundef nonnull align 16 dereferenceable(16) %position, ptr noundef nonnull align 16 dereferenceable(16) %arrayidx.i, i64 16, i1 false)
  %m_quat = getelementptr inbounds i8, ptr %arrayidx.i, i64 16
  call void @llvm.memcpy.p0.p0.i64(ptr noundef nonnull align 16 dereferenceable(16) %orientation, ptr noundef nonnull align 16 dereferenceable(16) %m_quat, i64 16, i1 false)
  %m_collidableIdx = getelementptr inbounds i8, ptr %arrayidx.i, i64 64
  %5 = load i32, ptr %m_collidableIdx, align 16
  %m_np = getelementptr inbounds i8, ptr %3, i64 104
  %6 = load ptr, ptr %m_np, align 8
  %call4 = call noundef nonnull align 4 dereferenceable(16) ptr @_ZN16b3CpuNarrowPhase16getCollidableCpuEi(ptr noundef nonnull align 8 dereferenceable(28) %6, i32 noundef %5)
  %7 = getelementptr inbounds i8, ptr %call4, i64 12
  %8 = load i32, ptr %7, align 4
  %cmp5 = icmp sgt i32 %8, -1
  br i1 %cmp5, label %if.then, label %for.inc

if.then:                                          ; preds = %for.body
  %9 = load ptr, ptr %m_data.i, align 8
  %m_np7 = getelementptr inbounds i8, ptr %9, i64 104
  %10 = load ptr, ptr %m_np7, align 8
  %call8 = call noundef nonnull align 16 dereferenceable(32) ptr @_ZNK16b3CpuNarrowPhase17getLocalSpaceAabbEi(ptr noundef nonnull align 8 dereferenceable(28) %10, i32 noundef %8)
  call void @llvm.memcpy.p0.p0.i64(ptr noundef nonnull align 16 dereferenceable(32) %localAabb, ptr noundef nonnull align 16 dereferenceable(32) %call8, i64 32, i1 false)
  %11 = load ptr, ptr %m_data.i, align 8
  %m_data.i12 = getelementptr inbounds i8, ptr %11, i64 80
  %12 = load ptr, ptr %m_data.i12, align 8
  %arrayidx.i14 = getelementptr inbounds %struct.b3Aabb, ptr %12, i64 %indvars.iv
  %13 = getelementptr inbounds i8, ptr %arrayidx.i14, i64 16
  call void @_Z16b3TransformAabb2RK9b3Vector3S1_fS1_RK12b3QuaternionPS_S5_(ptr noundef nonnull align 16 dereferenceable(16) %localAabb, ptr noundef nonnull align 16 dereferenceable(16) %2, float noundef 0.000000e+00, ptr noundef nonnull align 16 dereferenceable(16) %position, ptr noundef nonnull align 16 dereferenceable(16) %orientation, ptr noundef nonnull %arrayidx.i14, ptr noundef nonnull %13)
  %14 = load ptr, ptr %m_data.i, align 8
  %m_bp = getelementptr inbounds i8, ptr %14, i64 96
  %15 = load ptr, ptr %m_bp, align 8
  %vtable = load ptr, ptr %15, align 8
  %vfn = getelementptr inbounds i8, ptr %vtable, i64 24
  %16 = load ptr, ptr %vfn, align 8
  %17 = trunc i64 %indvars.iv to i32
  call void %16(ptr noundef nonnull align 8 dereferenceable(315) %15, i32 noundef %17, ptr noundef nonnull align 16 dereferenceable(16) %arrayidx.i14, ptr noundef nonnull align 16 dereferenceable(16) %13, ptr noundef null)
  br label %for.inc

for.inc:                                          ; preds = %for.body, %if.then
  %indvars.iv.next = add nuw nsw i64 %indvars.iv, 1
  %18 = load ptr, ptr %m_data.i, align 8
  %m_size.i.i = getelementptr inbounds i8, ptr %18, i64 4
  %19 = load i32, ptr %m_size.i.i, align 4
  %20 = sext i32 %19 to i64
  %cmp = icmp slt i64 %indvars.iv.next, %20
  br i1 %cmp, label %for.body, label %for.end, !llvm.loop !5

for.end:                                          ; preds = %for.inc, %entry
  ret void
}